; ModuleID = '9/1396.c'
source_filename = "9/1396.c"
target datalayout = "e-m:e-p270:32:32-p271:32:32-p272:64:64-i64:64-f80:128-n8:16:32:64-S128"
target triple = "x86_64-pc-linux-gnu"

@.str = private unnamed_addr constant [4 x i8] c"%d \00", align 1
@.str.1 = private unnamed_addr constant [7 x i8] c" %s %d\00", align 1
@.str.2 = private unnamed_addr constant [3 x i8] c"%s\00", align 1
@.str.3 = private unnamed_addr constant [4 x i8] c"\0A%s\00", align 1

; Function Attrs: noinline nounwind uwtable
define dso_local i32 @main() #0 {
  %1 = alloca i32, align 4
  %2 = alloca [100 x [10 x i8]], align 16
  %3 = alloca [10 x i8], align 1
  %4 = alloca i32, align 4
  %5 = alloca i32, align 4
  %6 = alloca i32, align 4
  %7 = alloca [100 x i32], align 16
  %8 = alloca i32, align 4
  store i32 0, i32* %1, align 4
  %9 = call i32 (i8*, ...) @__isoc99_scanf(i8* getelementptr inbounds ([4 x i8], [4 x i8]* @.str, i64 0, i64 0), i32* %4)
  store i32 0, i32* %5, align 4
  br label %10

10:                                               ; preds = %22, %0
  %11 = load i32, i32* %5, align 4
  %12 = load i32, i32* %4, align 4
  %13 = icmp slt i32 %11, %12
  br i1 %13, label %14, label %25

14:                                               ; preds = %10
  %15 = load i32, i32* %5, align 4
  %16 = sext i32 %15 to i64
  %17 = getelementptr inbounds [100 x [10 x i8]], [100 x [10 x i8]]* %2, i64 0, i64 %16
  %18 = load i32, i32* %5, align 4
  %19 = sext i32 %18 to i64
  %20 = getelementptr inbounds [100 x i32], [100 x i32]* %7, i64 0, i64 %19
  %21 = call i32 (i8*, ...) @__isoc99_scanf(i8* getelementptr inbounds ([7 x i8], [7 x i8]* @.str.1, i64 0, i64 0), [10 x i8]* %17, i32* %20)
  br label %22

22:                                               ; preds = %14
  %23 = load i32, i32* %5, align 4
  %24 = add nsw i32 %23, 1
  store i32 %24, i32* %5, align 4
  br label %10

25:                                               ; preds = %10
  %26 = load i32, i32* %4, align 4
  %27 = sub nsw i32 %26, 1
  store i32 %27, i32* %6, align 4
  br label %28

28:                                               ; preds = %162, %25
  %29 = load i32, i32* %6, align 4
  %30 = icmp sgt i32 %29, 0
  br i1 %30, label %31, label %165

31:                                               ; preds = %28
  %32 = load i32, i32* %4, align 4
  %33 = sub nsw i32 %32, 1
  store i32 %33, i32* %5, align 4
  br label %34

34:                                               ; preds = %158, %31
  %35 = load i32, i32* %5, align 4
  %36 = icmp sgt i32 %35, 0
  br i1 %36, label %37, label %161

37:                                               ; preds = %34
  %38 = load i32, i32* %5, align 4
  %39 = sext i32 %38 to i64
  %40 = getelementptr inbounds [100 x i32], [100 x i32]* %7, i64 0, i64 %39
  %41 = load i32, i32* %40, align 4
  %42 = icmp sge i32 %41, 60
  br i1 %42, label %43, label %103

43:                                               ; preds = %37
  %44 = load i32, i32* %5, align 4
  %45 = sub nsw i32 %44, 1
  %46 = sext i32 %45 to i64
  %47 = getelementptr inbounds [100 x i32], [100 x i32]* %7, i64 0, i64 %46
  %48 = load i32, i32* %47, align 4
  %49 = icmp sge i32 %48, 60
  br i1 %49, label %50, label %103

50:                                               ; preds = %43
  %51 = load i32, i32* %5, align 4
  %52 = sext i32 %51 to i64
  %53 = getelementptr inbounds [100 x i32], [100 x i32]* %7, i64 0, i64 %52
  %54 = load i32, i32* %53, align 4
  %55 = load i32, i32* %5, align 4
  %56 = sub nsw i32 %55, 1
  %57 = sext i32 %56 to i64
  %58 = getelementptr inbounds [100 x i32], [100 x i32]* %7, i64 0, i64 %57
  %59 = load i32, i32* %58, align 4
  %60 = icmp sgt i32 %54, %59
  br i1 %60, label %61, label %102

61:                                               ; preds = %50
  %62 = getelementptr inbounds [10 x i8], [10 x i8]* %3, i64 0, i64 0
  %63 = load i32, i32* %5, align 4
  %64 = sext i32 %63 to i64
  %65 = getelementptr inbounds [100 x [10 x i8]], [100 x [10 x i8]]* %2, i64 0, i64 %64
  %66 = getelementptr inbounds [10 x i8], [10 x i8]* %65, i64 0, i64 0
  %67 = call i8* @strcpy(i8* %62, i8* %66) #3
  %68 = load i32, i32* %5, align 4
  %69 = sext i32 %68 to i64
  %70 = getelementptr inbounds [100 x i32], [100 x i32]* %7, i64 0, i64 %69
  %71 = load i32, i32* %70, align 4
  store i32 %71, i32* %8, align 4
  %72 = load i32, i32* %5, align 4
  %73 = sext i32 %72 to i64
  %74 = getelementptr inbounds [100 x [10 x i8]], [100 x [10 x i8]]* %2, i64 0, i64 %73
  %75 = getelementptr inbounds [10 x i8], [10 x i8]* %74, i64 0, i64 0
  %76 = load i32, i32* %5, align 4
  %77 = sub nsw i32 %76, 1
  %78 = sext i32 %77 to i64
  %79 = getelementptr inbounds [100 x [10 x i8]], [100 x [10 x i8]]* %2, i64 0, i64 %78
  %80 = getelementptr inbounds [10 x i8], [10 x i8]* %79, i64 0, i64 0
  %81 = call i8* @strcpy(i8* %75, i8* %80) #3
  %82 = load i32, i32* %5, align 4
  %83 = sub nsw i32 %82, 1
  %84 = sext i32 %83 to i64
  %85 = getelementptr inbounds [100 x i32], [100 x i32]* %7, i64 0, i64 %84
  %86 = load i32, i32* %85, align 4
  %87 = load i32, i32* %5, align 4
  %88 = sext i32 %87 to i64
  %89 = getelementptr inbounds [100 x i32], [100 x i32]* %7, i64 0, i64 %88
  store i32 %86, i32* %89, align 4
  %90 = load i32, i32* %5, align 4
  %91 = sub nsw i32 %90, 1
  %92 = sext i32 %91 to i64
  %93 = getelementptr inbounds [100 x [10 x i8]], [100 x [10 x i8]]* %2, i64 0, i64 %92
  %94 = getelementptr inbounds [10 x i8], [10 x i8]* %93, i64 0, i64 0
  %95 = getelementptr inbounds [10 x i8], [10 x i8]* %3, i64 0, i64 0
  %96 = call i8* @strcpy(i8* %94, i8* %95) #3
  %97 = load i32, i32* %8, align 4
  %98 = load i32, i32* %5, align 4
  %99 = sub nsw i32 %98, 1
  %100 = sext i32 %99 to i64
  %101 = getelementptr inbounds [100 x i32], [100 x i32]* %7, i64 0, i64 %100
  store i32 %97, i32* %101, align 4
  br label %102

102:                                              ; preds = %61, %50
  br label %103

103:                                              ; preds = %102, %43, %37
  %104 = load i32, i32* %5, align 4
  %105 = sext i32 %104 to i64
  %106 = getelementptr inbounds [100 x i32], [100 x i32]* %7, i64 0, i64 %105
  %107 = load i32, i32* %106, align 4
  %108 = icmp sge i32 %107, 60
  br i1 %108, label %109, label %157

109:                                              ; preds = %103
  %110 = load i32, i32* %5, align 4
  %111 = sub nsw i32 %110, 1
  %112 = sext i32 %111 to i64
  %113 = getelementptr inbounds [100 x i32], [100 x i32]* %7, i64 0, i64 %112
  %114 = load i32, i32* %113, align 4
  %115 = icmp slt i32 %114, 60
  br i1 %115, label %116, label %157

116:                                              ; preds = %109
  %117 = getelementptr inbounds [10 x i8], [10 x i8]* %3, i64 0, i64 0
  %118 = load i32, i32* %5, align 4
  %119 = sext i32 %118 to i64
  %120 = getelementptr inbounds [100 x [10 x i8]], [100 x [10 x i8]]* %2, i64 0, i64 %119
  %121 = getelementptr inbounds [10 x i8], [10 x i8]* %120, i64 0, i64 0
  %122 = call i8* @strcpy(i8* %117, i8* %121) #3
  %123 = load i32, i32* %5, align 4
  %124 = sext i32 %123 to i64
  %125 = getelementptr inbounds [100 x i32], [100 x i32]* %7, i64 0, i64 %124
  %126 = load i32, i32* %125, align 4
  store i32 %126, i32* %8, align 4
  %127 = load i32, i32* %5, align 4
  %128 = sext i32 %127 to i64
  %129 = getelementptr inbounds [100 x [10 x i8]], [100 x [10 x i8]]* %2, i64 0, i64 %128
  %130 = getelementptr inbounds [10 x i8], [10 x i8]* %129, i64 0, i64 0
  %131 = load i32, i32* %5, align 4
  %132 = sub nsw i32 %131, 1
  %133 = sext i32 %132 to i64
  %134 = getelementptr inbounds [100 x [10 x i8]], [100 x [10 x i8]]* %2, i64 0, i64 %133
  %135 = getelementptr inbounds [10 x i8], [10 x i8]* %134, i64 0, i64 0
  %136 = call i8* @strcpy(i8* %130, i8* %135) #3
  %137 = load i32, i32* %5, align 4
  %138 = sub nsw i32 %137, 1
  %139 = sext i32 %138 to i64
  %140 = getelementptr inbounds [100 x i32], [100 x i32]* %7, i64 0, i64 %139
  %141 = load i32, i32* %140, align 4
  %142 = load i32, i32* %5, align 4
  %143 = sext i32 %142 to i64
  %144 = getelementptr inbounds [100 x i32], [100 x i32]* %7, i64 0, i64 %143
  store i32 %141, i32* %144, align 4
  %145 = load i32, i32* %5, align 4
  %146 = sub nsw i32 %145, 1
  %147 = sext i32 %146 to i64
  %148 = getelementptr inbounds [100 x [10 x i8]], [100 x [10 x i8]]* %2, i64 0, i64 %147
  %149 = getelementptr inbounds [10 x i8], [10 x i8]* %148, i64 0, i64 0
  %150 = getelementptr inbounds [10 x i8], [10 x i8]* %3, i64 0, i64 0
  %151 = call i8* @strcpy(i8* %149, i8* %150) #3
  %152 = load i32, i32* %8, align 4
  %153 = load i32, i32* %5, align 4
  %154 = sub nsw i32 %153, 1
  %155 = sext i32 %154 to i64
  %156 = getelementptr inbounds [100 x i32], [100 x i32]* %7, i64 0, i64 %155
  store i32 %152, i32* %156, align 4
  br label %157

157:                                              ; preds = %116, %109, %103
  br label %158

158:                                              ; preds = %157
  %159 = load i32, i32* %5, align 4
  %160 = add nsw i32 %159, -1
  store i32 %160, i32* %5, align 4
  br label %34

161:                                              ; preds = %34
  br label %162

162:                                              ; preds = %161
  %163 = load i32, i32* %6, align 4
  %164 = add nsw i32 %163, -1
  store i32 %164, i32* %6, align 4
  br label %28

165:                                              ; preds = %28
  store i32 0, i32* %5, align 4
  br label %166

166:                                              ; preds = %186, %165
  %167 = load i32, i32* %5, align 4
  %168 = load i32, i32* %4, align 4
  %169 = icmp slt i32 %167, %168
  br i1 %169, label %170, label %189

170:                                              ; preds = %166
  %171 = load i32, i32* %5, align 4
  %172 = icmp eq i32 %171, 0
  br i1 %172, label %173, label %179

173:                                              ; preds = %170
  %174 = load i32, i32* %5, align 4
  %175 = sext i32 %174 to i64
  %176 = getelementptr inbounds [100 x [10 x i8]], [100 x [10 x i8]]* %2, i64 0, i64 %175
  %177 = getelementptr inbounds [10 x i8], [10 x i8]* %176, i64 0, i64 0
  %178 = call i32 (i8*, ...) @printf(i8* getelementptr inbounds ([3 x i8], [3 x i8]* @.str.2, i64 0, i64 0), i8* %177)
  br label %185

179:                                              ; preds = %170
  %180 = load i32, i32* %5, align 4
  %181 = sext i32 %180 to i64
  %182 = getelementptr inbounds [100 x [10 x i8]], [100 x [10 x i8]]* %2, i64 0, i64 %181
  %183 = getelementptr inbounds [10 x i8], [10 x i8]* %182, i64 0, i64 0
  %184 = call i32 (i8*, ...) @printf(i8* getelementptr inbounds ([4 x i8], [4 x i8]* @.str.3, i64 0, i64 0), i8* %183)
  br label %185

185:                                              ; preds = %179, %173
  br label %186

186:                                              ; preds = %185
  %187 = load i32, i32* %5, align 4
  %188 = add nsw i32 %187, 1
  store i32 %188, i32* %5, align 4
  br label %166

189:                                              ; preds = %166
  ret i32 0
}

declare dso_local i32 @__isoc99_scanf(i8*, ...) #1

; Function Attrs: nounwind
declare dso_local i8* @strcpy(i8*, i8*) #2

declare dso_local i32 @printf(i8*, ...) #1


!llvm.module.flags = !{!0}
!llvm.ident = !{!1}

!0 = !{i32 1, !"wchar_size", i32 4}
!1 = !{!"clang version 10.0.0-4ubuntu1 "}
